target datalayout = "e-m:e-p270:32:32-p271:32:32-p272:64:64-i64:64-i128:128-f80:128-n8:16:32:64-S128"
target triple = "x86_64-pc-linux-gnu"

%struct._timelib_time = type { i64, i64, i64, i64, i64, i64, i64, i32, ptr, ptr, i32, %struct._timelib_rel_time, i64, i32, i32, i32, i32, i32, i32, i32, i32, i32 }
%struct._timelib_rel_time = type { i64, i64, i64, i64, i64, i64, i64, i32, i32, i32, i32, i64, %struct.anon, i32, i32 }
%struct.anon = type { i32, i64 }

; Function Attrs: nounwind uwtable
define hidden ptr @timelib_add(ptr noundef %0, ptr noundef %1) #0 {
  %3 = alloca ptr, align 8
  %4 = alloca ptr, align 8
  %5 = alloca i32, align 4
  %6 = alloca ptr, align 8
  store ptr %0, ptr %3, align 8, !tbaa !4
  store ptr %1, ptr %4, align 8, !tbaa !29
  call void @llvm.lifetime.start.p0(i64 4, ptr %5) #7
  store i32 1, ptr %5, align 4, !tbaa !51
  call void @llvm.lifetime.start.p0(i64 8, ptr %6) #7
  %7 = load ptr, ptr %3, align 8, !tbaa !4
  %8 = call ptr @timelib_time_clone(ptr noundef %7)
  store ptr %8, ptr %6, align 8, !tbaa !4
  %9 = load ptr, ptr %4, align 8, !tbaa !29
  %10 = getelementptr inbounds nuw %struct._timelib_rel_time, ptr %9, i32 0, i32 13
  %11 = load i32, ptr %10, align 8, !tbaa !55
  %12 = icmp ne i32 %11, 0
  br i1 %12, label %18, label %13

13:                                               ; preds = %2
  %14 = load ptr, ptr %4, align 8, !tbaa !29
  %15 = getelementptr inbounds nuw %struct._timelib_rel_time, ptr %14, i32 0, i32 14
  %16 = load i32, ptr %15, align 4, !tbaa !56
  %17 = icmp ne i32 %16, 0
  br i1 %17, label %18, label %22

18:                                               ; preds = %13, %2
  %19 = load ptr, ptr %6, align 8, !tbaa !4
  %20 = getelementptr inbounds nuw %struct._timelib_time, ptr %19, i32 0, i32 11
  %21 = load ptr, ptr %4, align 8, !tbaa !29
  call void @llvm.memcpy.p0.p0.i64(ptr align 8 %20, ptr align 8 %21, i64 104, i1 false)
  br label %94

22:                                               ; preds = %13
  %23 = load ptr, ptr %4, align 8, !tbaa !29
  %24 = getelementptr inbounds nuw %struct._timelib_rel_time, ptr %23, i32 0, i32 10
  %25 = load i32, ptr %24, align 4, !tbaa !31
  %26 = icmp ne i32 %25, 0
  br i1 %26, label %27, label %28

27:                                               ; preds = %22
  store i32 -1, ptr %5, align 4, !tbaa !51
  br label %28

28:                                               ; preds = %27, %22
  %29 = load ptr, ptr %6, align 8, !tbaa !4
  %30 = getelementptr inbounds nuw %struct._timelib_time, ptr %29, i32 0, i32 11
  call void @llvm.memset.p0.i64(ptr align 8 %30, i8 0, i64 104, i1 false)
  %31 = load ptr, ptr %4, align 8, !tbaa !29
  %32 = getelementptr inbounds nuw %struct._timelib_rel_time, ptr %31, i32 0, i32 0
  %33 = load i64, ptr %32, align 8, !tbaa !33
  %34 = load i32, ptr %5, align 4, !tbaa !51
  %35 = sext i32 %34 to i64
  %36 = mul i64 %33, %35
  %37 = load ptr, ptr %6, align 8, !tbaa !4
  %38 = getelementptr inbounds nuw %struct._timelib_time, ptr %37, i32 0, i32 11
  %39 = getelementptr inbounds nuw %struct._timelib_rel_time, ptr %38, i32 0, i32 0
  store i64 %36, ptr %39, align 8, !tbaa !57
  %40 = load ptr, ptr %4, align 8, !tbaa !29
  %41 = getelementptr inbounds nuw %struct._timelib_rel_time, ptr %40, i32 0, i32 1
  %42 = load i64, ptr %41, align 8, !tbaa !35
  %43 = load i32, ptr %5, align 4, !tbaa !51
  %44 = sext i32 %43 to i64
  %45 = mul i64 %42, %44
  %46 = load ptr, ptr %6, align 8, !tbaa !4
  %47 = getelementptr inbounds nuw %struct._timelib_time, ptr %46, i32 0, i32 11
  %48 = getelementptr inbounds nuw %struct._timelib_rel_time, ptr %47, i32 0, i32 1
  store i64 %45, ptr %48, align 8, !tbaa !58
  %49 = load ptr, ptr %4, align 8, !tbaa !29
  %50 = getelementptr inbounds nuw %struct._timelib_rel_time, ptr %49, i32 0, i32 2
  %51 = load i64, ptr %50, align 8, !tbaa !37
  %52 = load i32, ptr %5, align 4, !tbaa !51
  %53 = sext i32 %52 to i64
  %54 = mul i64 %51, %53
  %55 = load ptr, ptr %6, align 8, !tbaa !4
  %56 = getelementptr inbounds nuw %struct._timelib_time, ptr %55, i32 0, i32 11
  %57 = getelementptr inbounds nuw %struct._timelib_rel_time, ptr %56, i32 0, i32 2
  store i64 %54, ptr %57, align 8, !tbaa !59
  %58 = load ptr, ptr %4, align 8, !tbaa !29
  %59 = getelementptr inbounds nuw %struct._timelib_rel_time, ptr %58, i32 0, i32 3
  %60 = load i64, ptr %59, align 8, !tbaa !39
  %61 = load i32, ptr %5, align 4, !tbaa !51
  %62 = sext i32 %61 to i64
  %63 = mul i64 %60, %62
  %64 = load ptr, ptr %6, align 8, !tbaa !4
  %65 = getelementptr inbounds nuw %struct._timelib_time, ptr %64, i32 0, i32 11
  %66 = getelementptr inbounds nuw %struct._timelib_rel_time, ptr %65, i32 0, i32 3
  store i64 %63, ptr %66, align 8, !tbaa !60
  %67 = load ptr, ptr %4, align 8, !tbaa !29
  %68 = getelementptr inbounds nuw %struct._timelib_rel_time, ptr %67, i32 0, i32 4
  %69 = load i64, ptr %68, align 8, !tbaa !42
  %70 = load i32, ptr %5, align 4, !tbaa !51
  %71 = sext i32 %70 to i64
  %72 = mul i64 %69, %71
  %73 = load ptr, ptr %6, align 8, !tbaa !4
  %74 = getelementptr inbounds nuw %struct._timelib_time, ptr %73, i32 0, i32 11
  %75 = getelementptr inbounds nuw %struct._timelib_rel_time, ptr %74, i32 0, i32 4
  store i64 %72, ptr %75, align 8, !tbaa !61
  %76 = load ptr, ptr %4, align 8, !tbaa !29
  %77 = getelementptr inbounds nuw %struct._timelib_rel_time, ptr %76, i32 0, i32 5
  %78 = load i64, ptr %77, align 8, !tbaa !45
  %79 = load i32, ptr %5, align 4, !tbaa !51
  %80 = sext i32 %79 to i64
  %81 = mul i64 %78, %80
  %82 = load ptr, ptr %6, align 8, !tbaa !4
  %83 = getelementptr inbounds nuw %struct._timelib_time, ptr %82, i32 0, i32 11
  %84 = getelementptr inbounds nuw %struct._timelib_rel_time, ptr %83, i32 0, i32 5
  store i64 %81, ptr %84, align 8, !tbaa !62
  %85 = load ptr, ptr %4, align 8, !tbaa !29
  %86 = getelementptr inbounds nuw %struct._timelib_rel_time, ptr %85, i32 0, i32 6
  %87 = load i64, ptr %86, align 8, !tbaa !47
  %88 = load i32, ptr %5, align 4, !tbaa !51
  %89 = sext i32 %88 to i64
  %90 = mul i64 %87, %89
  %91 = load ptr, ptr %6, align 8, !tbaa !4
  %92 = getelementptr inbounds nuw %struct._timelib_time, ptr %91, i32 0, i32 11
  %93 = getelementptr inbounds nuw %struct._timelib_rel_time, ptr %92, i32 0, i32 6
  store i64 %90, ptr %93, align 8, !tbaa !63
  br label %94

94:                                               ; preds = %28, %18
  %95 = load ptr, ptr %6, align 8, !tbaa !4
  %96 = getelementptr inbounds nuw %struct._timelib_time, ptr %95, i32 0, i32 16
  store i32 1, ptr %96, align 4, !tbaa !64
  %97 = load ptr, ptr %6, align 8, !tbaa !4
  %98 = getelementptr inbounds nuw %struct._timelib_time, ptr %97, i32 0, i32 18
  store i32 0, ptr %98, align 4, !tbaa !65
  %99 = load ptr, ptr %6, align 8, !tbaa !4
  call void @timelib_update_ts(ptr noundef %99, ptr noundef null)
  %100 = load ptr, ptr %6, align 8, !tbaa !4
  call void @timelib_update_from_sse(ptr noundef %100)
  %101 = load ptr, ptr %6, align 8, !tbaa !4
  %102 = getelementptr inbounds nuw %struct._timelib_time, ptr %101, i32 0, i32 16
  store i32 0, ptr %102, align 4, !tbaa !64
  %103 = load ptr, ptr %6, align 8, !tbaa !4
  call void @llvm.lifetime.end.p0(i64 8, ptr %6) #7
  call void @llvm.lifetime.end.p0(i64 4, ptr %5) #7
  ret ptr %103
}