; Function Attrs: nounwind uwtable
define hidden ptr @timelib_add(ptr noundef %0, ptr noundef readonly captures(none) %1) local_unnamed_addr #0 {
  %3 = tail call ptr @timelib_time_clone(ptr noundef %0) #9
  %4 = getelementptr inbounds nuw i8, ptr %1, i64 96
  %5 = load i32, ptr %4, align 8, !tbaa !51
  %.not = icmp eq i32 %5, 0
  br i1 %.not, label %6, label %9

6:                                                ; preds = %2
  %7 = getelementptr inbounds nuw i8, ptr %1, i64 100
  %8 = load i32, ptr %7, align 4, !tbaa !52
  %.not33 = icmp eq i32 %8, 0
  br i1 %.not33, label %11, label %9

9:                                                ; preds = %6, %2
  %10 = getelementptr inbounds nuw i8, ptr %3, i64 88
  tail call void @llvm.memcpy.p0.p0.i64(ptr noundef nonnull align 8 dereferenceable(104) %10, ptr noundef nonnull align 8 dereferenceable(104) %1, i64 104, i1 false)
  br label %41

11:                                               ; preds = %6
  %12 = getelementptr inbounds nuw i8, ptr %1, i64 68
  %13 = load i32, ptr %12, align 4, !tbaa !29
  %.not34 = icmp eq i32 %13, 0
  %spec.select = select i1 %.not34, i64 1, i64 -1
  %14 = getelementptr inbounds nuw i8, ptr %3, i64 88
  tail call void @llvm.memset.p0.i64(ptr noundef nonnull align 8 dereferenceable(104) %14, i8 0, i64 104, i1 false)
  %15 = load i64, ptr %1, align 8, !tbaa !32
  %16 = mul i64 %15, %spec.select
  store i64 %16, ptr %14, align 8, !tbaa !53
  %17 = getelementptr inbounds nuw i8, ptr %1, i64 8
  %18 = load i64, ptr %17, align 8, !tbaa !34
  %19 = mul i64 %18, %spec.select
  %20 = getelementptr inbounds nuw i8, ptr %3, i64 96
  store i64 %19, ptr %20, align 8, !tbaa !54
  %21 = getelementptr inbounds nuw i8, ptr %1, i64 16
  %22 = load i64, ptr %21, align 8, !tbaa !36
  %23 = mul i64 %22, %spec.select
  %24 = getelementptr inbounds nuw i8, ptr %3, i64 104
  store i64 %23, ptr %24, align 8, !tbaa !55
  %25 = getelementptr inbounds nuw i8, ptr %1, i64 24
  %26 = load i64, ptr %25, align 8, !tbaa !38
  %27 = mul i64 %26, %spec.select
  %28 = getelementptr inbounds nuw i8, ptr %3, i64 112
  store i64 %27, ptr %28, align 8, !tbaa !56
  %29 = getelementptr inbounds nuw i8, ptr %1, i64 32
  %30 = load i64, ptr %29, align 8, !tbaa !40
  %31 = mul i64 %30, %spec.select
  %32 = getelementptr inbounds nuw i8, ptr %3, i64 120
  store i64 %31, ptr %32, align 8, !tbaa !57
  %33 = getelementptr inbounds nuw i8, ptr %1, i64 40
  %34 = load i64, ptr %33, align 8, !tbaa !42
  %35 = mul i64 %34, %spec.select
  %36 = getelementptr inbounds nuw i8, ptr %3, i64 128
  store i64 %35, ptr %36, align 8, !tbaa !58
  %37 = getelementptr inbounds nuw i8, ptr %1, i64 48
  %38 = load i64, ptr %37, align 8, !tbaa !44
  %39 = mul i64 %38, %spec.select
  %40 = getelementptr inbounds nuw i8, ptr %3, i64 136
  store i64 %39, ptr %40, align 8, !tbaa !59
  br label %41

41:                                               ; preds = %11, %9
  %42 = getelementptr inbounds nuw i8, ptr %3, i64 212
  store i32 1, ptr %42, align 4, !tbaa !60
  %43 = getelementptr inbounds nuw i8, ptr %3, i64 220
  store i32 0, ptr %43, align 4, !tbaa !61
  tail call void @timelib_update_ts(ptr noundef nonnull %3, ptr noundef null) #9
  tail call void @timelib_update_from_sse(ptr noundef nonnull %3) #9
  store i32 0, ptr %42, align 4, !tbaa !60
  ret ptr %3
}